; Function Attrs: mustprogress uwtable
define void @_ZN5faiss17ResidualQuantizerC2Ev(ptr noundef nonnull align 8 dereferenceable(432) %0) unnamed_addr #0 align 2 personality ptr @__gxx_personality_v0 {
  tail call void @_ZN5faiss17AdditiveQuantizerC2Ev(ptr noundef nonnull align 8 dereferenceable(308) %0)
  store ptr getelementptr inbounds ({ [10 x ptr] }, ptr @_ZTVN5faiss17ResidualQuantizerE, i64 0, i32 0, i64 2), ptr %0, align 8
  %2 = getelementptr inbounds i8, ptr %0, i64 308
  store <4 x i32> <i32 1, i32 5, i32 5, i32 0>, ptr %2, align 4
  %3 = getelementptr inbounds i8, ptr %0, i64 324
  store i32 0, ptr %3, align 4
  %4 = getelementptr inbounds i8, ptr %0, i64 328
  invoke void @_ZN5faiss34ProgressiveDimClusteringParametersC1Ev(ptr noundef nonnull align 8 dereferenceable(45) %4)
          to label %5 unwind label %10

5:                                                ; preds = %1
  %6 = getelementptr inbounds i8, ptr %0, i64 376
  %7 = getelementptr inbounds i8, ptr %0, i64 8
  store i64 0, ptr %7, align 8
  %8 = getelementptr inbounds i8, ptr %0, i64 24
  store i64 0, ptr %8, align 8
  %9 = getelementptr inbounds i8, ptr %0, i64 129
  store i8 0, ptr %9, align 1
  tail call void @llvm.memset.p0.i64(ptr noundef nonnull align 8 dereferenceable(56) %6, i8 0, i64 56, i1 false)
  ret void

10:                                               ; preds = %1
  %11 = landingpad { ptr, i32 }
          cleanup
  tail call void @_ZN5faiss17AdditiveQuantizerD2Ev(ptr noundef nonnull align 8 dereferenceable(308) %0) #16
  resume { ptr, i32 } %11
}